; Function Attrs: mustprogress nofree norecurse nosync nounwind memory(readwrite, inaccessiblemem: none) uwtable
define hidden void @_ZN5ceres8internal19TripletSparseMatrix8CopyDataERKS1_(ptr nocapture noundef nonnull readonly align 8 dereferenceable(48) %0, ptr nocapture noundef nonnull readonly align 8 dereferenceable(48) %1) local_unnamed_addr #8 align 2 {
  %3 = getelementptr inbounds i8, ptr %0, i64 20
  %4 = load i32, ptr %3, align 4
  %5 = icmp sgt i32 %4, 0
  br i1 %5, label %.lr.ph, label %._crit_edge

.lr.ph:                                           ; preds = %2
  %6 = getelementptr inbounds i8, ptr %1, i64 24
  %7 = getelementptr inbounds i8, ptr %0, i64 24
  %8 = getelementptr inbounds i8, ptr %1, i64 32
  %9 = getelementptr inbounds i8, ptr %0, i64 32
  %10 = getelementptr inbounds i8, ptr %1, i64 40
  %11 = getelementptr inbounds i8, ptr %0, i64 40
  br label %12

12:                                               ; preds = %.lr.ph, %12
  %indvars.iv = phi i64 [ 0, %.lr.ph ], [ %indvars.iv.next, %12 ]
  %13 = load ptr, ptr %6, align 8
  %14 = getelementptr inbounds i32, ptr %13, i64 %indvars.iv
  %15 = load i32, ptr %14, align 4
  %16 = load ptr, ptr %7, align 8
  %17 = getelementptr inbounds i32, ptr %16, i64 %indvars.iv
  store i32 %15, ptr %17, align 4
  %18 = load ptr, ptr %8, align 8
  %19 = getelementptr inbounds i32, ptr %18, i64 %indvars.iv
  %20 = load i32, ptr %19, align 4
  %21 = load ptr, ptr %9, align 8
  %22 = getelementptr inbounds i32, ptr %21, i64 %indvars.iv
  store i32 %20, ptr %22, align 4
  %23 = load ptr, ptr %10, align 8
  %24 = getelementptr inbounds double, ptr %23, i64 %indvars.iv
  %25 = load double, ptr %24, align 8
  %26 = load ptr, ptr %11, align 8
  %27 = getelementptr inbounds double, ptr %26, i64 %indvars.iv
  store double %25, ptr %27, align 8
  %indvars.iv.next = add nuw nsw i64 %indvars.iv, 1
  %28 = load i32, ptr %3, align 4
  %29 = sext i32 %28 to i64
  %30 = icmp slt i64 %indvars.iv.next, %29
  br i1 %30, label %12, label %._crit_edge, !llvm.loop !13

._crit_edge:                                      ; preds = %12, %2
  ret void
}